; Function Attrs: mustprogress uwtable
define void @_ZNK8QuantLib15FixedRateCoupon19performCalculationsEv(ptr noundef nonnull align 8 dereferenceable(136) %this) unnamed_addr #8 align 2 {
entry:
  %vtable = load ptr, ptr %this, align 8, !tbaa !33
  %vfn = getelementptr inbounds i8, ptr %vtable, i64 64
  %0 = load ptr, ptr %vfn, align 8
  %call = tail call noundef double %0(ptr noundef nonnull align 8 dereferenceable(88) %this)
  %rate_ = getelementptr inbounds nuw i8, ptr %this, i64 88
  %accrualStartDate_ = getelementptr inbounds nuw i8, ptr %this, i64 40
  %accrualEndDate_ = getelementptr inbounds nuw i8, ptr %this, i64 48
  %refPeriodStart_ = getelementptr inbounds nuw i8, ptr %this, i64 56
  %refPeriodEnd_ = getelementptr inbounds nuw i8, ptr %this, i64 64
  %call2 = tail call noundef double @_ZNK8QuantLib12InterestRate14compoundFactorERKNS_4DateES3_S3_S3_(ptr noundef nonnull align 8 dereferenceable(40) %rate_, ptr noundef nonnull align 8 dereferenceable(8) %accrualStartDate_, ptr noundef nonnull align 8 dereferenceable(8) %accrualEndDate_, ptr noundef nonnull align 8 dereferenceable(8) %refPeriodStart_, ptr noundef nonnull align 8 dereferenceable(8) %refPeriodEnd_)
  %sub = fadd double %call2, -1.000000e+00
  %mul = fmul double %call, %sub
  %amount_ = getelementptr inbounds nuw i8, ptr %this, i64 128
  store double %mul, ptr %amount_, align 8, !tbaa !49
  ret void
}